target datalayout = "e-m:e-p270:32:32-p271:32:32-p272:64:64-i64:64-i128:128-f80:128-n8:16:32:64-S128"
target triple = "x86_64-pc-linux-gnu"

@.str = private unnamed_addr constant [2 x i8] c" \00", align 1
@.str.37 = private unnamed_addr constant [43 x i8] c"%sData type: PMIX_TIME\09Value: NULL pointer\00", align 1
@.str.38 = private unnamed_addr constant [33 x i8] c"%sData type: PMIX_TIME\09Value: %s\00", align 1

; Function Attrs: nounwind uwtable
define i32 @pmix20_bfrop_print_time(ptr noundef %0, ptr noundef %1, ptr noundef %2, i16 noundef zeroext %3) #0 {
  %5 = alloca i32, align 4
  %6 = alloca ptr, align 8
  %7 = alloca ptr, align 8
  %8 = alloca ptr, align 8
  %9 = alloca i16, align 2
  %10 = alloca ptr, align 8
  %11 = alloca ptr, align 8
  %12 = alloca i32, align 4
  store ptr %0, ptr %6, align 8, !tbaa !3
  store ptr %1, ptr %7, align 8, !tbaa !8
  store ptr %2, ptr %8, align 8, !tbaa !33
  store i16 %3, ptr %9, align 2, !tbaa !11
  call void @llvm.lifetime.start.p0(i64 8, ptr %10) #7
  call void @llvm.lifetime.start.p0(i64 8, ptr %11) #7
  %13 = load ptr, ptr %7, align 8, !tbaa !8
  %14 = icmp eq ptr null, %13
  br i1 %14, label %15, label %20

15:                                               ; preds = %4
  %16 = call i32 (ptr, ptr, ...) @asprintf(ptr noundef %10, ptr noundef @.str) #7
  %17 = icmp sgt i32 0, %16
  br i1 %17, label %18, label %19

18:                                               ; preds = %15
  store i32 -32, ptr %5, align 4
  store i32 1, ptr %12, align 4
  br label %71

19:                                               ; preds = %15
  br label %22

20:                                               ; preds = %4
  %21 = load ptr, ptr %7, align 8, !tbaa !8
  store ptr %21, ptr %10, align 8, !tbaa !8
  br label %22

22:                                               ; preds = %20, %19
  %23 = load ptr, ptr %8, align 8, !tbaa !33
  %24 = icmp eq ptr null, %23
  br i1 %24, label %25, label %44

25:                                               ; preds = %22
  %26 = load ptr, ptr %6, align 8, !tbaa !3
  %27 = load ptr, ptr %10, align 8, !tbaa !8
  %28 = call i32 (ptr, ptr, ...) @asprintf(ptr noundef %26, ptr noundef @.str.37, ptr noundef %27) #7
  %29 = icmp sgt i32 0, %28
  br i1 %29, label %30, label %37

30:                                               ; preds = %25
  %31 = load ptr, ptr %10, align 8, !tbaa !8
  %32 = load ptr, ptr %7, align 8, !tbaa !8
  %33 = icmp ne ptr %31, %32
  br i1 %33, label %34, label %36

34:                                               ; preds = %30
  %35 = load ptr, ptr %10, align 8, !tbaa !8
  call void @free(ptr noundef %35) #7
  br label %36

36:                                               ; preds = %34, %30
  store i32 -32, ptr %5, align 4
  store i32 1, ptr %12, align 4
  br label %71

37:                                               ; preds = %25
  %38 = load ptr, ptr %10, align 8, !tbaa !8
  %39 = load ptr, ptr %7, align 8, !tbaa !8
  %40 = icmp ne ptr %38, %39
  br i1 %40, label %41, label %43

41:                                               ; preds = %37
  %42 = load ptr, ptr %10, align 8, !tbaa !8
  call void @free(ptr noundef %42) #7
  br label %43

43:                                               ; preds = %41, %37
  store i32 0, ptr %5, align 4
  store i32 1, ptr %12, align 4
  br label %71

44:                                               ; preds = %22
  %45 = load ptr, ptr %8, align 8, !tbaa !33
  %46 = call ptr @ctime(ptr noundef %45) #7
  store ptr %46, ptr %11, align 8, !tbaa !8
  %47 = load ptr, ptr %11, align 8, !tbaa !8
  %48 = load ptr, ptr %11, align 8, !tbaa !8
  %49 = call i64 @strlen(ptr noundef %48) #8
  %50 = sub i64 %49, 1
  %51 = getelementptr inbounds nuw i8, ptr %47, i64 %50
  store i8 0, ptr %51, align 1, !tbaa !32
  %52 = load ptr, ptr %6, align 8, !tbaa !3
  %53 = load ptr, ptr %10, align 8, !tbaa !8
  %54 = load ptr, ptr %11, align 8, !tbaa !8
  %55 = call i32 (ptr, ptr, ...) @asprintf(ptr noundef %52, ptr noundef @.str.38, ptr noundef %53, ptr noundef %54) #7
  %56 = icmp sgt i32 0, %55
  br i1 %56, label %57, label %64

57:                                               ; preds = %44
  %58 = load ptr, ptr %10, align 8, !tbaa !8
  %59 = load ptr, ptr %7, align 8, !tbaa !8
  %60 = icmp ne ptr %58, %59
  br i1 %60, label %61, label %63

61:                                               ; preds = %57
  %62 = load ptr, ptr %10, align 8, !tbaa !8
  call void @free(ptr noundef %62) #7
  br label %63

63:                                               ; preds = %61, %57
  store i32 -32, ptr %5, align 4
  store i32 1, ptr %12, align 4
  br label %71

64:                                               ; preds = %44
  %65 = load ptr, ptr %10, align 8, !tbaa !8
  %66 = load ptr, ptr %7, align 8, !tbaa !8
  %67 = icmp ne ptr %65, %66
  br i1 %67, label %68, label %70

68:                                               ; preds = %64
  %69 = load ptr, ptr %10, align 8, !tbaa !8
  call void @free(ptr noundef %69) #7
  br label %70

70:                                               ; preds = %68, %64
  store i32 0, ptr %5, align 4
  store i32 1, ptr %12, align 4
  br label %71

71:                                               ; preds = %70, %63, %43, %36, %18
  call void @llvm.lifetime.end.p0(i64 8, ptr %11) #7
  call void @llvm.lifetime.end.p0(i64 8, ptr %10) #7
  %72 = load i32, ptr %5, align 4
  ret i32 %72
}