; Function Attrs: nounwind uwtable
define range(i32 -32, 1) i32 @pmix20_bfrop_print_time(ptr noundef %0, ptr noundef %1, ptr noundef %2, i16 noundef zeroext %3) local_unnamed_addr #0 {
  %5 = alloca ptr, align 8
  call void @llvm.lifetime.start.p0(i64 8, ptr nonnull %5) #7
  %6 = icmp eq ptr %1, null
  br i1 %6, label %7, label %10

7:                                                ; preds = %4
  %8 = call i32 (ptr, ptr, ...) @asprintf(ptr noundef nonnull %5, ptr noundef nonnull @.str) #7
  %9 = icmp slt i32 %8, 0
  br i1 %9, label %27, label %11

10:                                               ; preds = %4
  store ptr %1, ptr %5, align 8, !tbaa !20
  br label %11

11:                                               ; preds = %7, %10
  %12 = icmp eq ptr %2, null
  br i1 %12, label %13, label %18

13:                                               ; preds = %11
  %14 = load ptr, ptr %5, align 8, !tbaa !20
  %15 = call i32 (ptr, ptr, ...) @asprintf(ptr noundef %0, ptr noundef nonnull @.str.37, ptr noundef %14) #7
  %16 = icmp slt i32 %15, 0
  %17 = load ptr, ptr %5, align 8, !tbaa !20
  %.not21 = icmp eq ptr %17, %1
  %. = select i1 %16, i32 -32, i32 0
  br i1 %.not21, label %27, label %.sink.split

18:                                               ; preds = %11
  %19 = call ptr @ctime(ptr noundef nonnull %2) #7
  %20 = call i64 @strlen(ptr noundef nonnull dereferenceable(1) %19) #8
  %21 = getelementptr i8, ptr %19, i64 %20
  %22 = getelementptr i8, ptr %21, i64 -1
  store i8 0, ptr %22, align 1, !tbaa !25
  %23 = load ptr, ptr %5, align 8, !tbaa !20
  %24 = call i32 (ptr, ptr, ...) @asprintf(ptr noundef %0, ptr noundef nonnull @.str.38, ptr noundef %23, ptr noundef nonnull %19) #7
  %25 = icmp slt i32 %24, 0
  %26 = load ptr, ptr %5, align 8, !tbaa !20
  %.not19 = icmp eq ptr %26, %1
  %.22 = select i1 %25, i32 -32, i32 0
  br i1 %.not19, label %27, label %.sink.split

.sink.split:                                      ; preds = %18, %13
  %.sink = phi ptr [ %17, %13 ], [ %26, %18 ]
  %.0.ph = phi i32 [ %., %13 ], [ %.22, %18 ]
  call void @free(ptr noundef %.sink) #7
  br label %27

27:                                               ; preds = %18, %13, %.sink.split, %7
  %.0 = phi i32 [ -32, %7 ], [ %.0.ph, %.sink.split ], [ %., %13 ], [ %.22, %18 ]
  call void @llvm.lifetime.end.p0(i64 8, ptr nonnull %5) #7
  ret i32 %.0
}